; Function Attrs: inlinehint nounwind uwtable
define internal fastcc zeroext i1 @lxb_html_tree_insertion_mode_in_body_optopt(ptr noundef %0, ptr noundef %1) unnamed_addr #3 {
  %3 = getelementptr i8, ptr %0, i64 32
  %.val = load ptr, ptr %3, align 8, !tbaa !33
  %4 = getelementptr inbounds nuw i8, ptr %.val, i64 16
  %5 = load i64, ptr %4, align 8, !tbaa !34
  %6 = icmp eq i64 %5, 0
  br i1 %6, label %lxb_html_tree_current_node.exit, label %7

7:                                                ; preds = %2
  %8 = load ptr, ptr %.val, align 8, !tbaa !36
  %9 = getelementptr ptr, ptr %8, i64 %5
  %10 = getelementptr i8, ptr %9, i64 -8
  %11 = load ptr, ptr %10, align 8, !tbaa !37
  br label %lxb_html_tree_current_node.exit

lxb_html_tree_current_node.exit:                  ; preds = %2, %7
  %.0.i = phi ptr [ %11, %7 ], [ null, %2 ]
  %12 = getelementptr inbounds nuw i8, ptr %.0.i, i64 8
  %13 = load i64, ptr %12, align 8, !tbaa !38
  %14 = icmp eq i64 %13, 143
  br i1 %14, label %lxb_html_tree_node_is.exit, label %lxb_html_tree_node_is.exit.thread

lxb_html_tree_node_is.exit:                       ; preds = %lxb_html_tree_current_node.exit
  %15 = getelementptr inbounds nuw i8, ptr %.0.i, i64 24
  %16 = load i64, ptr %15, align 8, !tbaa !42
  %17 = icmp eq i64 %16, 2
  br i1 %17, label %18, label %lxb_html_tree_node_is.exit.thread

18:                                               ; preds = %lxb_html_tree_node_is.exit
  %19 = tail call ptr @lexbor_array_pop(ptr noundef nonnull %.val) #6
  br label %lxb_html_tree_node_is.exit.thread

lxb_html_tree_node_is.exit.thread:                ; preds = %lxb_html_tree_current_node.exit, %18, %lxb_html_tree_node_is.exit
  %20 = tail call i32 @lxb_html_tree_active_formatting_reconstruct_elements(ptr noundef nonnull %0) #6
  %21 = getelementptr inbounds nuw i8, ptr %0, i64 112
  store i32 %20, ptr %21, align 8, !tbaa !22
  %.not = icmp eq i32 %20, 0
  br i1 %.not, label %22, label %.sink.split

22:                                               ; preds = %lxb_html_tree_node_is.exit.thread
  %23 = tail call ptr @lxb_html_tree_insert_foreign_element(ptr noundef nonnull %0, ptr noundef %1, i64 noundef 2) #6
  %24 = icmp eq ptr %23, null
  br i1 %24, label %25, label %27

25:                                               ; preds = %22
  store i32 2, ptr %21, align 8, !tbaa !22
  br label %.sink.split

.sink.split:                                      ; preds = %lxb_html_tree_node_is.exit.thread, %25
  %26 = tail call zeroext i1 @lxb_html_tree_process_abort(ptr noundef nonnull %0) #6
  br label %27

27:                                               ; preds = %.sink.split, %22
  %.0 = phi i1 [ true, %22 ], [ %26, %.sink.split ]
  ret i1 %.0
}